target datalayout = "e-m:e-p270:32:32-p271:32:32-p272:64:64-i64:64-i128:128-f80:128-n8:16:32:64-S128"
target triple = "x86_64-pc-linux-gnu"

%class.b3GpuNarrowPhase = type { ptr, ptr, i32, i32, i32, ptr, ptr, ptr }
%struct.b3GpuNarrowPhaseInternalData = type { ptr, %class.b3AlignedObjectArray, %class.b3AlignedObjectArray.0, %class.b3AlignedObjectArray.0, %class.b3AlignedObjectArray.2, ptr, ptr, ptr, ptr, ptr, ptr, ptr, ptr, ptr, %class.b3AlignedObjectArray.4, ptr, %class.b3AlignedObjectArray.6, ptr, ptr, ptr, [2 x ptr], i32, ptr, ptr, ptr, ptr, ptr, i32, i32, %class.b3AlignedObjectArray.8, ptr, ptr, ptr, %class.b3AlignedObjectArray.10, %class.b3AlignedObjectArray.12, %class.b3AlignedObjectArray.14, %class.b3AlignedObjectArray.16, %class.b3AlignedObjectArray.18, ptr, ptr, ptr, %struct.b3Config }
%class.b3AlignedObjectArray = type <{ [4 x i8], i32, i32, [4 x i8], ptr, i8, [7 x i8] }>
%class.b3AlignedObjectArray.0 = type <{ [4 x i8], i32, i32, [4 x i8], ptr, i8, [7 x i8] }>
%class.b3AlignedObjectArray.2 = type <{ [4 x i8], i32, i32, [4 x i8], ptr, i8, [7 x i8] }>
%class.b3AlignedObjectArray.4 = type <{ [4 x i8], i32, i32, [4 x i8], ptr, i8, [7 x i8] }>
%class.b3AlignedObjectArray.6 = type <{ [4 x i8], i32, i32, [4 x i8], ptr, i8, [7 x i8] }>
%class.b3AlignedObjectArray.8 = type <{ [4 x i8], i32, i32, [4 x i8], ptr, i8, [7 x i8] }>
%class.b3AlignedObjectArray.10 = type <{ [4 x i8], i32, i32, [4 x i8], ptr, i8, [7 x i8] }>
%class.b3AlignedObjectArray.12 = type <{ [4 x i8], i32, i32, [4 x i8], ptr, i8, [7 x i8] }>
%class.b3AlignedObjectArray.14 = type <{ [4 x i8], i32, i32, [4 x i8], ptr, i8, [7 x i8] }>
%class.b3AlignedObjectArray.16 = type <{ [4 x i8], i32, i32, [4 x i8], ptr, i8, [7 x i8] }>
%class.b3AlignedObjectArray.18 = type <{ [4 x i8], i32, i32, [4 x i8], ptr, i8, [7 x i8] }>
%struct.b3Config = type { i32, i32, i32, i32, i32, i32, i32, i32, i32, i32, i32, i32 }
%class.b3OpenCLArray.36 = type <{ ptr, i64, i64, ptr, ptr, ptr, i8, i8, [6 x i8] }>

; Function Attrs: mustprogress nounwind uwtable
define linkonce_odr dso_local noundef ptr @_ZNK13b3OpenCLArrayI10b3Contact4E11getBufferCLEv(ptr noundef nonnull align 8 dereferenceable(50) %0) #8 comdat align 2 {
  %2 = alloca ptr, align 8
  store ptr %0, ptr %2, align 8, !tbaa !95
  %3 = load ptr, ptr %2, align 8
  %4 = getelementptr inbounds nuw %class.b3OpenCLArray.36, ptr %3, i32 0, i32 3
  %5 = load ptr, ptr %4, align 8, !tbaa !175
  ret ptr %5
}

; Function Attrs: mustprogress uwtable
define dso_local noundef ptr @_ZN16b3GpuNarrowPhase14getContactsGpuEv(ptr noundef nonnull align 8 dereferenceable(56) %0) #0 align 2 {
  %2 = alloca ptr, align 8
  store ptr %0, ptr %2, align 8, !tbaa !4
  %3 = load ptr, ptr %2, align 8
  %4 = getelementptr inbounds nuw %class.b3GpuNarrowPhase, ptr %3, i32 0, i32 1
  %5 = load ptr, ptr %4, align 8, !tbaa !19
  %6 = getelementptr inbounds nuw %struct.b3GpuNarrowPhaseInternalData, ptr %5, i32 0, i32 20
  %7 = getelementptr inbounds nuw %class.b3GpuNarrowPhase, ptr %3, i32 0, i32 1
  %8 = load ptr, ptr %7, align 8, !tbaa !19
  %9 = getelementptr inbounds nuw %struct.b3GpuNarrowPhaseInternalData, ptr %8, i32 0, i32 21
  %10 = load i32, ptr %9, align 8, !tbaa !28
  %11 = sext i32 %10 to i64
  %12 = getelementptr inbounds [2 x ptr], ptr %6, i64 0, i64 %11
  %13 = load ptr, ptr %12, align 8, !tbaa !95
  %14 = call noundef ptr @_ZNK13b3OpenCLArrayI10b3Contact4E11getBufferCLEv(ptr noundef nonnull align 8 dereferenceable(50) %13)
  ret ptr %14
}